target datalayout = "e-m:e-p270:32:32-p271:32:32-p272:64:64-i64:64-i128:128-f80:128-n8:16:32:64-S128"
target triple = "x86_64-pc-linux-gnu"

%struct.PgStat_EntryRef = type { ptr, ptr, i32, ptr, %struct.dlist_node }
%struct.dlist_node = type { ptr, ptr }
%struct.PgStat_StatDBEntry = type { i64, i64, i64, i64, i64, i64, i64, i64, i64, i64, i64, i64, i64, i64, i64, i64, i64, i64, i64, i64, i64, i64, i64, i64, i64, i64, i64, i64, i64, i64, i64, i64, i64 }

@MyDatabaseId = external global i32, align 4
@MyStartTimestamp = external global i64, align 8
@pgLastSessionReportTime = internal global i64 0, align 8
@MyBackendType = external global i32, align 4

; Function Attrs: nounwind uwtable
define dso_local ptr @pgstat_prep_database_pending(i32 noundef %0) #0 {
  %2 = alloca i32, align 4
  %3 = alloca ptr, align 8
  store i32 %0, ptr %2, align 4
  call void @llvm.lifetime.start.p0(i64 8, ptr %3) #4
  %4 = load i32, ptr %2, align 4
  %5 = call ptr @pgstat_prep_pending_entry(i32 noundef 1, i32 noundef %4, i64 noundef 0, ptr noundef null)
  store ptr %5, ptr %3, align 8
  %6 = load ptr, ptr %3, align 8
  %7 = getelementptr inbounds nuw %struct.PgStat_EntryRef, ptr %6, i32 0, i32 3
  %8 = load ptr, ptr %7, align 8
  call void @llvm.lifetime.end.p0(i64 8, ptr %3) #4
  ret ptr %8
}

; Function Attrs: nounwind uwtable
define internal zeroext i1 @pgstat_should_report_connstat() #0 {
  %1 = load i32, ptr @MyBackendType, align 4
  %2 = icmp eq i32 %1, 1
  ret i1 %2
}

; Function Attrs: nounwind uwtable
define dso_local void @pgstat_report_connect(i32 noundef %0) #0 {
  %2 = alloca i32, align 4
  %3 = alloca ptr, align 8
  %4 = alloca i32, align 4
  store i32 %0, ptr %2, align 4
  call void @llvm.lifetime.start.p0(i64 8, ptr %3) #4
  %5 = call zeroext i1 @pgstat_should_report_connstat()
  br i1 %5, label %7, label %6

6:                                                ; preds = %1
  store i32 1, ptr %4, align 4
  br label %15

7:                                                ; preds = %1
  %8 = load i64, ptr @MyStartTimestamp, align 8
  store i64 %8, ptr @pgLastSessionReportTime, align 8
  %9 = load i32, ptr @MyDatabaseId, align 4
  %10 = call ptr @pgstat_prep_database_pending(i32 noundef %9)
  store ptr %10, ptr %3, align 8
  %11 = load ptr, ptr %3, align 8
  %12 = getelementptr inbounds nuw %struct.PgStat_StatDBEntry, ptr %11, i32 0, i32 23
  %13 = load i64, ptr %12, align 8
  %14 = add i64 %13, 1
  store i64 %14, ptr %12, align 8
  store i32 0, ptr %4, align 4
  br label %15

15:                                               ; preds = %7, %6
  call void @llvm.lifetime.end.p0(i64 8, ptr %3) #4
  %16 = load i32, ptr %4, align 4
  switch i32 %16, label %18 [
    i32 0, label %17
    i32 1, label %17
  ]

17:                                               ; preds = %15, %15
  ret void

18:                                               ; preds = %15
  unreachable
}