; Function Attrs: nounwind uwtable
define dso_local void @pgstat_report_connect(i32 noundef %0) local_unnamed_addr #0 {
  %2 = load i32, ptr @MyBackendType, align 4
  %3 = icmp eq i32 %2, 1
  br i1 %3, label %4, label %13

4:                                                ; preds = %1
  %5 = load i64, ptr @MyStartTimestamp, align 8
  store i64 %5, ptr @pgLastSessionReportTime, align 8
  %6 = load i32, ptr @MyDatabaseId, align 4
  %7 = tail call ptr @pgstat_prep_pending_entry(i32 noundef 1, i32 noundef %6, i64 noundef 0, ptr noundef null) #6
  %8 = getelementptr inbounds nuw i8, ptr %7, i64 24
  %9 = load ptr, ptr %8, align 8
  %10 = getelementptr inbounds nuw i8, ptr %9, i64 184
  %11 = load i64, ptr %10, align 8
  %12 = add i64 %11, 1
  store i64 %12, ptr %10, align 8
  br label %13

13:                                               ; preds = %1, %4
  ret void
}